///////////////////////////////////////////////////////////////////////////////
//                                                                            /
// IAR C/C++ Compiler V8.10.3.10338/W32 for 8051        21/Apr/2018  22:18:39 /
// Copyright 2004-2011 IAR Systems AB.                                        /
//                                                                            /
//    Core               =  plain                                             /
//    Code model         =  banked                                            /
//    Data model         =  large                                             /
//    Calling convention =  xdata reentrant                                   /
//    Constant location  =  data_rom                                          /
//    Dptr setup         =  1,16                                              /
//    Source file        =  C:\Users\Administrator\Desktop\Texas Instruments  /
//                          - 副本\ZStack-CC2530-2.5.1a\Projects\zstack\Sampl /
//                          es\SwqAPP\Source\SwqAPP.c                         /
//    Command line       =  -f "C:\Users\Administrator\Desktop\Texas          /
//                          Instruments - 副本\ZStack-CC2530-2.5.1a\Projects\ /
//                          zstack\Samples\SwqAPP\CC2530DB\..\..\..\Tools\CC2 /
//                          530DB\f8wCoord.cfg" (-DCPU32MHZ                   /
//                          -DROOT=__near_func -DMAC_CFG_APP_PENDING_QUEUE=TR /
//                          UE -DMAC_CFG_TX_DATA_MAX=5 -DMAC_CFG_TX_MAX=8     /
//                          -DMAC_CFG_RX_MAX=5 -DZDO_COORDINATOR -DRTR_NWK)   /
//                          -f "C:\Users\Administrator\Desktop\Texas          /
//                          Instruments - 副本\ZStack-CC2530-2.5.1a\Projects\ /
//                          zstack\Samples\SwqAPP\CC2530DB\..\..\..\Tools\CC2 /
//                          530DB\f8wConfig.cfg" (-DZIGBEEPRO -DSECURE=0      /
//                          -DZG_SECURE_DYNAMIC=0 -DREFLECTOR                 /
//                          -DDEFAULT_CHANLIST=0x00000800                     /
//                          -DZDAPP_CONFIG_PAN_ID=0xFFFF                      /
//                          -DNWK_START_DELAY=100 -DEXTENDED_JOINING_RANDOM_M /
//                          ASK=0x007F -DBEACON_REQUEST_DELAY=100             /
//                          -DBEACON_REQ_DELAY_MASK=0x00FF                    /
//                          -DLINK_STATUS_JITTER_MASK=0x007F                  /
//                          -DROUTE_EXPIRY_TIME=30 -DAPSC_ACK_WAIT_DURATION_P /
//                          OLLED=3000 -DNWK_INDIRECT_MSG_TIMEOUT=7           /
//                          -DMAX_RREQ_ENTRIES=8 -DAPSC_MAX_FRAME_RETRIES=3   /
//                          -DNWK_MAX_DATA_RETRIES=2                          /
//                          -DMAX_POLL_FAILURE_RETRIES=2 -DMAX_BCAST=9        /
//                          -DAPS_MAX_GROUPS=16 -DMAX_RTG_ENTRIES=40          /
//                          -DNWK_MAX_BINDING_ENTRIES=4                       /
//                          -DMAX_BINDING_CLUSTER_IDS=4                       /
//                          "-DDEFAULT_KEY={0x01, 0x03, 0x05, 0x07, 0x09,     /
//                          0x0B, 0x0D, 0x0F, 0x00, 0x02, 0x04, 0x06, 0x08,   /
//                          0x0A, 0x0C, 0x0D}" -DMAC_MAX_FRAME_SIZE=116       /
//                          -DZDNWKMGR_MIN_TRANSMISSIONS=20 "-DCONST=const    /
//                          __code" -DGENERIC=__generic                       /
//                          -DRFD_RCVC_ALWAYS_ON=FALSE -DPOLL_RATE=1000       /
//                          -DQUEUED_POLL_RATE=100 -DRESPONSE_POLL_RATE=100)  /
//                          -DREJOIN_POLL_RATE=440 "C:\Users\Administrator\De /
//                          sktop\Texas Instruments -                         /
//                          副本\ZStack-CC2530-2.5.1a\Projects\zstack\Samples /
//                          \SwqAPP\Source\SwqAPP.c" -D ZTOOL_P1 -D xMT_TASK  /
//                          -D xMT_SYS_FUNC -D xMT_ZDO_FUNC -D                /
//                          xLCD_SUPPORTED=DEBUG -lC                          /
//                          "C:\Users\Administrator\Desktop\Texas             /
//                          Instruments - 副本\ZStack-CC2530-2.5.1a\Projects\ /
//                          zstack\Samples\SwqAPP\CC2530DB\CoordinatorEB\List /
//                          \" -lA "C:\Users\Administrator\Desktop\Texas      /
//                          Instruments - 副本\ZStack-CC2530-2.5.1a\Projects\ /
//                          zstack\Samples\SwqAPP\CC2530DB\CoordinatorEB\List /
//                          \" --diag_suppress Pe001,Pa010 -o                 /
//                          "C:\Users\Administrator\Desktop\Texas             /
//                          Instruments - 副本\ZStack-CC2530-2.5.1a\Projects\ /
//                          zstack\Samples\SwqAPP\CC2530DB\CoordinatorEB\Obj\ /
//                          " -e --no_code_motion --debug --core=plain        /
//                          --dptr=16,1 --data_model=large                    /
//                          --code_model=banked --calling_convention=xdata_re /
//                          entrant --place_constants=data_rom                /
//                          --nr_virtual_regs 16 -I                           /
//                          "C:\Users\Administrator\Desktop\Texas             /
//                          Instruments - 副本\ZStack-CC2530-2.5.1a\Projects\ /
//                          zstack\Samples\SwqAPP\CC2530DB\" -I               /
//                          "C:\Users\Administrator\Desktop\Texas             /
//                          Instruments - 副本\ZStack-CC2530-2.5.1a\Projects\ /
//                          zstack\Samples\SwqAPP\CC2530DB\..\Source\" -I     /
//                          "C:\Users\Administrator\Desktop\Texas             /
//                          Instruments - 副本\ZStack-CC2530-2.5.1a\Projects\ /
//                          zstack\Samples\SwqAPP\CC2530DB\..\..\..\ZMain\TI2 /
//                          530DB\" -I "C:\Users\Administrator\Desktop\Texas  /
//                          Instruments - 副本\ZStack-CC2530-2.5.1a\Projects\ /
//                          zstack\Samples\SwqAPP\CC2530DB\..\..\..\..\..\Com /
//                          ponents\hal\include\" -I                          /
//                          "C:\Users\Administrator\Desktop\Texas             /
//                          Instruments - 副本\ZStack-CC2530-2.5.1a\Projects\ /
//                          zstack\Samples\SwqAPP\CC2530DB\..\..\..\..\..\Com /
//                          ponents\hal\target\CC2530EB\" -I                  /
//                          "C:\Users\Administrator\Desktop\Texas             /
//                          Instruments - 副本\ZStack-CC2530-2.5.1a\Projects\ /
//                          zstack\Samples\SwqAPP\CC2530DB\..\..\..\..\..\Com /
//                          ponents\mac\include\" -I                          /
//                          "C:\Users\Administrator\Desktop\Texas             /
//                          Instruments - 副本\ZStack-CC2530-2.5.1a\Projects\ /
//                          zstack\Samples\SwqAPP\CC2530DB\..\..\..\..\..\Com /
//                          ponents\mac\high_level\" -I                       /
//                          "C:\Users\Administrator\Desktop\Texas             /
//                          Instruments - 副本\ZStack-CC2530-2.5.1a\Projects\ /
//                          zstack\Samples\SwqAPP\CC2530DB\..\..\..\..\..\Com /
//                          ponents\mac\low_level\srf04\" -I                  /
//                          "C:\Users\Administrator\Desktop\Texas             /
//                          Instruments - 副本\ZStack-CC2530-2.5.1a\Projects\ /
//                          zstack\Samples\SwqAPP\CC2530DB\..\..\..\..\..\Com /
//                          ponents\mac\low_level\srf04\single_chip\" -I      /
//                          "C:\Users\Administrator\Desktop\Texas             /
//                          Instruments - 副本\ZStack-CC2530-2.5.1a\Projects\ /
//                          zstack\Samples\SwqAPP\CC2530DB\..\..\..\..\..\Com /
//                          ponents\mt\" -I "C:\Users\Administrator\Desktop\T /
//                          exas Instruments - 副本\ZStack-CC2530-2.5.1a\Proj /
//                          ects\zstack\Samples\SwqAPP\CC2530DB\..\..\..\..\. /
//                          .\Components\osal\include\" -I                    /
//                          "C:\Users\Administrator\Desktop\Texas             /
//                          Instruments - 副本\ZStack-CC2530-2.5.1a\Projects\ /
//                          zstack\Samples\SwqAPP\CC2530DB\..\..\..\..\..\Com /
//                          ponents\services\saddr\" -I                       /
//                          "C:\Users\Administrator\Desktop\Texas             /
//                          Instruments - 副本\ZStack-CC2530-2.5.1a\Projects\ /
//                          zstack\Samples\SwqAPP\CC2530DB\..\..\..\..\..\Com /
//                          ponents\services\sdata\" -I                       /
//                          "C:\Users\Administrator\Desktop\Texas             /
//                          Instruments - 副本\ZStack-CC2530-2.5.1a\Projects\ /
//                          zstack\Samples\SwqAPP\CC2530DB\..\..\..\..\..\Com /
//                          ponents\stack\af\" -I "C:\Users\Administrator\Des /
//                          ktop\Texas Instruments -                          /
//                          副本\ZStack-CC2530-2.5.1a\Projects\zstack\Samples /
//                          \SwqAPP\CC2530DB\..\..\..\..\..\Components\stack\ /
//                          nwk\" -I "C:\Users\Administrator\Desktop\Texas    /
//                          Instruments - 副本\ZStack-CC2530-2.5.1a\Projects\ /
//                          zstack\Samples\SwqAPP\CC2530DB\..\..\..\..\..\Com /
//                          ponents\stack\sapi\" -I                           /
//                          "C:\Users\Administrator\Desktop\Texas             /
//                          Instruments - 副本\ZStack-CC2530-2.5.1a\Projects\ /
//                          zstack\Samples\SwqAPP\CC2530DB\..\..\..\..\..\Com /
//                          ponents\stack\sec\" -I "C:\Users\Administrator\De /
//                          sktop\Texas Instruments -                         /
//                          副本\ZStack-CC2530-2.5.1a\Projects\zstack\Samples /
//                          \SwqAPP\CC2530DB\..\..\..\..\..\Components\stack\ /
//                          sys\" -I "C:\Users\Administrator\Desktop\Texas    /
//                          Instruments - 副本\ZStack-CC2530-2.5.1a\Projects\ /
//                          zstack\Samples\SwqAPP\CC2530DB\..\..\..\..\..\Com /
//                          ponents\stack\zdo\" -I "C:\Users\Administrator\De /
//                          sktop\Texas Instruments -                         /
//                          副本\ZStack-CC2530-2.5.1a\Projects\zstack\Samples /
//                          \SwqAPP\CC2530DB\..\..\..\..\..\Components\zmac\" /
//                           -I "C:\Users\Administrator\Desktop\Texas         /
//                          Instruments - 副本\ZStack-CC2530-2.5.1a\Projects\ /
//                          zstack\Samples\SwqAPP\CC2530DB\..\..\..\..\..\Com /
//                          ponents\zmac\f8w\" -Ohz --require_prototypes      /
//    List file          =  C:\Users\Administrator\Desktop\Texas Instruments  /
//                          - 副本\ZStack-CC2530-2.5.1a\Projects\zstack\Sampl /
//                          es\SwqAPP\CC2530DB\CoordinatorEB\List\SwqAPP.s51  /
//                                                                            /
//                                                                            /
///////////////////////////////////////////////////////////////////////////////

        NAME SwqAPP

        RTMODEL "__SystemLibrary", "CLib"
        RTMODEL "__calling_convention", "xdata_reentrant"
        RTMODEL "__code_model", "banked"
        RTMODEL "__core", "plain"
        RTMODEL "__data_model", "large"
        RTMODEL "__dptr_size", "16"
        RTMODEL "__extended_stack", "disabled"
        RTMODEL "__location_for_constants", "data"
        RTMODEL "__number_of_dptrs", "1"
        RTMODEL "__rt_version", "1"

        RSEG DOVERLAY:DATA:NOROOT(0)
        RSEG IOVERLAY:IDATA:NOROOT(0)
        RSEG ISTACK:IDATA:NOROOT(0)
        RSEG PSTACK:XDATA:NOROOT(0)
        RSEG XSTACK:XDATA:NOROOT(0)

        EXTERN ?ALLOC_XSTACK8
        EXTERN ?BANKED_ENTER_XDATA
        EXTERN ?BANKED_LEAVE_XDATA
        EXTERN ?BDISPATCH
        EXTERN ?DEALLOC_XSTACK8
        EXTERN ?MOVE_LONG8_XDATA_XDATA
        EXTERN ?PUSH_XSTACK_I_ONE
        EXTERN ?PUSH_XSTACK_I_TWO
        EXTERN ?US_SWITCH_SPARSE
        EXTERN ?V0
        EXTERN ?XSP
        EXTERN ?XSTACK_DISP0_8
        EXTERN __INIT_XDATA_Z

        PUBLIC ??SwqAPP_Init?relay
        FUNCTION ??SwqAPP_Init?relay,0203H
        PUBLIC ??SwqAPP_ProcessEvent?relay
        FUNCTION ??SwqAPP_ProcessEvent?relay,0203H
        PUBLIC SwqAPP_ClusterList
        PUBLIC SwqAPP_DstAddr
        PUBLIC SwqAPP_Init
        FUNCTION SwqAPP_Init,021203H
        ARGFRAME XSTACK, 0, STACK
        LOCFRAME XSTACK, 9, STACK
        PUBLIC SwqAPP_NwkState
        PUBLIC SwqAPP_ProcessEvent
        FUNCTION SwqAPP_ProcessEvent,0a1203H
        ARGFRAME XSTACK, 0, STACK
        LOCFRAME ISTACK, 2, STACK
        LOCFRAME XSTACK, 44, STACK
        PUBLIC SwqAPP_SimpleDesc
        PUBLIC SwqAPP_TaskID
        PUBLIC SwqAPP_TransID
        PUBLIC SwqAPP_epDesc
        
        CFI Names cfiNames0
        CFI StackFrame CFA_SP SP IDATA
        CFI StackFrame CFA_PSP16 PSP16 XDATA
        CFI StackFrame CFA_XSP16 XSP16 XDATA
        CFI StaticOverlayFrame CFA_IOVERLAY IOVERLAY
        CFI StaticOverlayFrame CFA_DOVERLAY DOVERLAY
        CFI Resource `PSW.CY`:1, `B.BR0`:1, `B.BR1`:1, `B.BR2`:1, `B.BR3`:1
        CFI Resource `B.BR4`:1, `B.BR5`:1, `B.BR6`:1, `B.BR7`:1, `VB.BR8`:1
        CFI Resource `VB.BR9`:1, `VB.BR10`:1, `VB.BR11`:1, `VB.BR12`:1
        CFI Resource `VB.BR13`:1, `VB.BR14`:1, `VB.BR15`:1, VB:8, B:8, A:8
        CFI Resource PSW:8, DPL0:8, DPH0:8, R0:8, R1:8, R2:8, R3:8, R4:8, R5:8
        CFI Resource R6:8, R7:8, V0:8, V1:8, V2:8, V3:8, V4:8, V5:8, V6:8, V7:8
        CFI Resource V8:8, V9:8, V10:8, V11:8, V12:8, V13:8, V14:8, V15:8, SP:8
        CFI Resource PSPH:8, PSPL:8, PSP16:16, XSPH:8, XSPL:8, XSP16:16
        CFI VirtualResource ?RET:24
        CFI Resource ?BRET_EXT:8
        CFI VirtualResource ?RET_HIGH:8, ?RET_LOW:8
        CFI ResourceParts PSP16 PSPH, PSPL
        CFI ResourceParts XSP16 XSPH, XSPL
        CFI ResourceParts ?RET ?BRET_EXT, ?RET_HIGH, ?RET_LOW
        CFI EndNames cfiNames0
        
        CFI Common cfiCommon0 Using cfiNames0
        CFI CodeAlign 1
        CFI DataAlign -1
        CFI ReturnAddress ?RET CODE
        CFI CFA_DOVERLAY Used
        CFI CFA_IOVERLAY Used
        CFI CFA_SP SP+-3
        CFI CFA_PSP16 PSP16+0
        CFI CFA_XSP16 XSP16+0
        CFI `PSW.CY` SameValue
        CFI `B.BR0` SameValue
        CFI `B.BR1` SameValue
        CFI `B.BR2` SameValue
        CFI `B.BR3` SameValue
        CFI `B.BR4` SameValue
        CFI `B.BR5` SameValue
        CFI `B.BR6` SameValue
        CFI `B.BR7` SameValue
        CFI `VB.BR8` SameValue
        CFI `VB.BR9` SameValue
        CFI `VB.BR10` SameValue
        CFI `VB.BR11` SameValue
        CFI `VB.BR12` SameValue
        CFI `VB.BR13` SameValue
        CFI `VB.BR14` SameValue
        CFI `VB.BR15` SameValue
        CFI VB SameValue
        CFI B Undefined
        CFI A Undefined
        CFI PSW SameValue
        CFI DPL0 SameValue
        CFI DPH0 SameValue
        CFI R0 Undefined
        CFI R1 Undefined
        CFI R2 Undefined
        CFI R3 Undefined
        CFI R4 Undefined
        CFI R5 Undefined
        CFI R6 SameValue
        CFI R7 SameValue
        CFI V0 SameValue
        CFI V1 SameValue
        CFI V2 SameValue
        CFI V3 SameValue
        CFI V4 SameValue
        CFI V5 SameValue
        CFI V6 SameValue
        CFI V7 SameValue
        CFI V8 SameValue
        CFI V9 SameValue
        CFI V10 SameValue
        CFI V11 SameValue
        CFI V12 SameValue
        CFI V13 SameValue
        CFI V14 SameValue
        CFI V15 SameValue
        CFI PSPH Undefined
        CFI PSPL Undefined
        CFI XSPH Undefined
        CFI XSPL Undefined
        CFI ?RET Concat
        CFI ?BRET_EXT Frame(CFA_SP, 3)
        CFI ?RET_HIGH Frame(CFA_SP, 2)
        CFI ?RET_LOW Frame(CFA_SP, 1)
        CFI EndCommon cfiCommon0
        
MT_UartInit         SYMBOL "MT_UartInit"
MT_UartRegisterTaskID SYMBOL "MT_UartRegisterTaskID"
HalUARTWrite        SYMBOL "HalUARTWrite"
afRegister          SYMBOL "afRegister"
RegisterForKeys     SYMBOL "RegisterForKeys"
ZDO_RegisterForZDOMsg SYMBOL "ZDO_RegisterForZDOMsg"
osal_msg_receive    SYMBOL "osal_msg_receive"
osal_start_timerEx  SYMBOL "osal_start_timerEx"
osal_msg_deallocate SYMBOL "osal_msg_deallocate"
ZDO_ParseEPListRsp  SYMBOL "ZDO_ParseEPListRsp"
HalLedSet           SYMBOL "HalLedSet"
osal_mem_free       SYMBOL "osal_mem_free"
NLME_GetShortAddr   SYMBOL "NLME_GetShortAddr"
ZDP_EndDeviceBindReq SYMBOL "ZDP_EndDeviceBindReq"
ZDP_MatchDescReq    SYMBOL "ZDP_MatchDescReq"
osal_strlen         SYMBOL "osal_strlen"
AF_DataRequest      SYMBOL "AF_DataRequest"
??AF_DataRequest?relay SYMBOL "?relay", AF_DataRequest
??HalLedSet?relay   SYMBOL "?relay", HalLedSet
??HalUARTWrite?relay SYMBOL "?relay", HalUARTWrite
??MT_UartInit?relay SYMBOL "?relay", MT_UartInit
??MT_UartRegisterTaskID?relay SYMBOL "?relay", MT_UartRegisterTaskID
??NLME_GetShortAddr?relay SYMBOL "?relay", NLME_GetShortAddr
??RegisterForKeys?relay SYMBOL "?relay", RegisterForKeys
??ZDO_ParseEPListRsp?relay SYMBOL "?relay", ZDO_ParseEPListRsp
??ZDO_RegisterForZDOMsg?relay SYMBOL "?relay", ZDO_RegisterForZDOMsg
??ZDP_EndDeviceBindReq?relay SYMBOL "?relay", ZDP_EndDeviceBindReq
??ZDP_MatchDescReq?relay SYMBOL "?relay", ZDP_MatchDescReq
??afRegister?relay  SYMBOL "?relay", afRegister
??osal_mem_free?relay SYMBOL "?relay", osal_mem_free
??osal_msg_deallocate?relay SYMBOL "?relay", osal_msg_deallocate
??osal_msg_receive?relay SYMBOL "?relay", osal_msg_receive
??osal_start_timerEx?relay SYMBOL "?relay", osal_start_timerEx
??osal_strlen?relay SYMBOL "?relay", osal_strlen
SwqAPP_Init         SYMBOL "SwqAPP_Init"
??SwqAPP_Init?relay SYMBOL "?relay", SwqAPP_Init
SwqAPP_ProcessEvent SYMBOL "SwqAPP_ProcessEvent"
??SwqAPP_ProcessEvent?relay SYMBOL "?relay", SwqAPP_ProcessEvent

        EXTERN MT_UartInit
        FUNCTION MT_UartInit,0202H
        ARGFRAME ISTACK, 0, STACK
        ARGFRAME PSTACK, 0, STACK
        ARGFRAME XSTACK, 9, STACK
        ARGFRAME IOVERLAY, 0, STATIC
        ARGFRAME DOVERLAY, 0, STATIC
        EXTERN MT_UartRegisterTaskID
        FUNCTION MT_UartRegisterTaskID,0202H
        ARGFRAME ISTACK, 0, STACK
        ARGFRAME PSTACK, 0, STACK
        ARGFRAME XSTACK, 9, STACK
        ARGFRAME IOVERLAY, 0, STATIC
        ARGFRAME DOVERLAY, 0, STATIC
        EXTERN HalUARTWrite
        FUNCTION HalUARTWrite,0202H
        ARGFRAME ISTACK, 0, STACK
        ARGFRAME PSTACK, 0, STACK
        ARGFRAME XSTACK, 9, STACK
        ARGFRAME IOVERLAY, 0, STATIC
        ARGFRAME DOVERLAY, 0, STATIC
        EXTERN afRegister
        FUNCTION afRegister,0202H
        ARGFRAME ISTACK, 0, STACK
        ARGFRAME PSTACK, 0, STACK
        ARGFRAME XSTACK, 9, STACK
        ARGFRAME IOVERLAY, 0, STATIC
        ARGFRAME DOVERLAY, 0, STATIC
        EXTERN RegisterForKeys
        FUNCTION RegisterForKeys,0202H
        ARGFRAME ISTACK, 0, STACK
        ARGFRAME PSTACK, 0, STACK
        ARGFRAME XSTACK, 9, STACK
        ARGFRAME IOVERLAY, 0, STATIC
        ARGFRAME DOVERLAY, 0, STATIC
        EXTERN ZDO_RegisterForZDOMsg
        FUNCTION ZDO_RegisterForZDOMsg,0202H
        ARGFRAME ISTACK, 0, STACK
        ARGFRAME PSTACK, 0, STACK
        ARGFRAME XSTACK, 9, STACK
        ARGFRAME IOVERLAY, 0, STATIC
        ARGFRAME DOVERLAY, 0, STATIC
        EXTERN osal_msg_receive
        FUNCTION osal_msg_receive,0202H
        ARGFRAME ISTACK, 0, STACK
        ARGFRAME PSTACK, 0, STACK
        ARGFRAME XSTACK, 35, STACK
        ARGFRAME IOVERLAY, 0, STATIC
        ARGFRAME DOVERLAY, 0, STATIC
        EXTERN osal_start_timerEx
        FUNCTION osal_start_timerEx,0202H
        ARGFRAME ISTACK, 0, STACK
        ARGFRAME PSTACK, 0, STACK
        ARGFRAME XSTACK, 35, STACK
        ARGFRAME IOVERLAY, 0, STATIC
        ARGFRAME DOVERLAY, 0, STATIC
        EXTERN osal_msg_deallocate
        FUNCTION osal_msg_deallocate,0202H
        ARGFRAME ISTACK, 0, STACK
        ARGFRAME PSTACK, 0, STACK
        ARGFRAME XSTACK, 35, STACK
        ARGFRAME IOVERLAY, 0, STATIC
        ARGFRAME DOVERLAY, 0, STATIC
        EXTERN ZDO_ParseEPListRsp
        FUNCTION ZDO_ParseEPListRsp,0202H
        ARGFRAME ISTACK, 0, STACK
        ARGFRAME PSTACK, 0, STACK
        ARGFRAME XSTACK, 35, STACK
        ARGFRAME IOVERLAY, 0, STATIC
        ARGFRAME DOVERLAY, 0, STATIC
        EXTERN HalLedSet
        FUNCTION HalLedSet,0202H
        ARGFRAME ISTACK, 0, STACK
        ARGFRAME PSTACK, 0, STACK
        ARGFRAME XSTACK, 35, STACK
        ARGFRAME IOVERLAY, 0, STATIC
        ARGFRAME DOVERLAY, 0, STATIC
        EXTERN osal_mem_free
        FUNCTION osal_mem_free,0202H
        ARGFRAME ISTACK, 0, STACK
        ARGFRAME PSTACK, 0, STACK
        ARGFRAME XSTACK, 35, STACK
        ARGFRAME IOVERLAY, 0, STATIC
        ARGFRAME DOVERLAY, 0, STATIC
        EXTERN NLME_GetShortAddr
        FUNCTION NLME_GetShortAddr,0202H
        ARGFRAME ISTACK, 0, STACK
        ARGFRAME PSTACK, 0, STACK
        ARGFRAME XSTACK, 35, STACK
        ARGFRAME IOVERLAY, 0, STATIC
        ARGFRAME DOVERLAY, 0, STATIC
        EXTERN ZDP_EndDeviceBindReq
        FUNCTION ZDP_EndDeviceBindReq,0202H
        ARGFRAME ISTACK, 0, STACK
        ARGFRAME PSTACK, 0, STACK
        ARGFRAME XSTACK, 44, STACK
        ARGFRAME IOVERLAY, 0, STATIC
        ARGFRAME DOVERLAY, 0, STATIC
        EXTERN ZDP_MatchDescReq
        FUNCTION ZDP_MatchDescReq,0202H
        ARGFRAME ISTACK, 0, STACK
        ARGFRAME PSTACK, 0, STACK
        ARGFRAME XSTACK, 43, STACK
        ARGFRAME IOVERLAY, 0, STATIC
        ARGFRAME DOVERLAY, 0, STATIC
        EXTERN osal_strlen
        FUNCTION osal_strlen,0202H
        ARGFRAME ISTACK, 0, STACK
        ARGFRAME PSTACK, 0, STACK
        ARGFRAME XSTACK, 40, STACK
        ARGFRAME IOVERLAY, 0, STATIC
        ARGFRAME DOVERLAY, 0, STATIC
        EXTERN AF_DataRequest
        FUNCTION AF_DataRequest,0202H
        ARGFRAME ISTACK, 0, STACK
        ARGFRAME PSTACK, 0, STACK
        ARGFRAME XSTACK, 44, STACK
        ARGFRAME IOVERLAY, 0, STATIC
        ARGFRAME DOVERLAY, 0, STATIC
        EXTERN ??AF_DataRequest?relay
        FUNCTION ??AF_DataRequest?relay,00H
        EXTERN ??HalLedSet?relay
        FUNCTION ??HalLedSet?relay,00H
        EXTERN ??HalUARTWrite?relay
        FUNCTION ??HalUARTWrite?relay,00H
        EXTERN ??MT_UartInit?relay
        FUNCTION ??MT_UartInit?relay,00H
        EXTERN ??MT_UartRegisterTaskID?relay
        FUNCTION ??MT_UartRegisterTaskID?relay,00H
        EXTERN ??NLME_GetShortAddr?relay
        FUNCTION ??NLME_GetShortAddr?relay,00H
        EXTERN ??RegisterForKeys?relay
        FUNCTION ??RegisterForKeys?relay,00H
        EXTERN ??ZDO_ParseEPListRsp?relay
        FUNCTION ??ZDO_ParseEPListRsp?relay,00H
        EXTERN ??ZDO_RegisterForZDOMsg?relay
        FUNCTION ??ZDO_RegisterForZDOMsg?relay,00H
        EXTERN ??ZDP_EndDeviceBindReq?relay
        FUNCTION ??ZDP_EndDeviceBindReq?relay,00H
        EXTERN ??ZDP_MatchDescReq?relay
        FUNCTION ??ZDP_MatchDescReq?relay,00H
        EXTERN ??afRegister?relay
        FUNCTION ??afRegister?relay,00H
        EXTERN ??osal_mem_free?relay
        FUNCTION ??osal_mem_free?relay,00H
        EXTERN ??osal_msg_deallocate?relay
        FUNCTION ??osal_msg_deallocate?relay,00H
        EXTERN ??osal_msg_receive?relay
        FUNCTION ??osal_msg_receive?relay,00H
        EXTERN ??osal_start_timerEx?relay
        FUNCTION ??osal_start_timerEx?relay,00H
        EXTERN ??osal_strlen?relay
        FUNCTION ??osal_strlen?relay,00H

// C:\Users\Administrator\Desktop\Texas Instruments - 副本\ZStack-CC2530-2.5.1a\Projects\zstack\Samples\SwqAPP\Source\SwqAPP.c
//    1 /******************************************************************************
//    2   Filename:       SwqAPP.c
//    3   Revised:        $Date: 2012-03-07 01:04:58 -0800 (Wed, 07 Mar 2012) $
//    4   Revision:       $Revision: 29656 $
//    5 
//    6   Description:    Generic Application (no Profile).
//    7 
//    8 
//    9   Copyright 2004-2012 Texas Instruments Incorporated. All rights reserved.
//   10 
//   11   IMPORTANT: Your use of this Software is limited to those specific rights
//   12   granted under the terms of a software license agreement between the user
//   13   who downloaded the software, his/her employer (which must be your employer)
//   14   and Texas Instruments Incorporated (the "License"). You may not use this
//   15   Software unless you agree to abide by the terms of the License. The License
//   16   limits your use, and you acknowledge, that the Software may not be modified,
//   17   copied or distributed unless embedded on a Texas Instruments microcontroller
//   18   or used solely and exclusively in conjunction with a Texas Instruments radio
//   19   frequency transceiver, which is integrated into your product. Other than for
//   20   the foregoing purpose, you may not use, reproduce, copy, prepare derivative
//   21   works of, modify, distribute, perform, display or sell this Software and/or
//   22   its documentation for any purpose.
//   23 
//   24   YOU FURTHER ACKNOWLEDGE AND AGREE THAT THE SOFTWARE AND DOCUMENTATION ARE
//   25   PROVIDED AS IS?WITHOUT WARRANTY OF ANY KIND, EITHER EXPRESS OR IMPLIED,
//   26   INCLUDING WITHOUT LIMITATION, ANY WARRANTY OF MERCHANTABILITY, TITLE,
//   27   NON-INFRINGEMENT AND FITNESS FOR A PARTICULAR PURPOSE. IN NO EVENT SHALL
//   28   TEXAS INSTRUMENTS OR ITS LICENSORS BE LIABLE OR OBLIGATED UNDER CONTRACT,
//   29   NEGLIGENCE, STRICT LIABILITY, CONTRIBUTION, BREACH OF WARRANTY, OR OTHER
//   30   LEGAL EQUITABLE THEORY ANY DIRECT OR INDIRECT DAMAGES OR EXPENSES
//   31   INCLUDING BUT NOT LIMITED TO ANY INCIDENTAL, SPECIAL, INDIRECT, PUNITIVE
//   32   OR CONSEQUENTIAL DAMAGES, LOST PROFITS OR LOST DATA, COST OF PROCUREMENT
//   33   OF SUBSTITUTE GOODS, TECHNOLOGY, SERVICES, OR ANY CLAIMS BY THIRD PARTIES
//   34   (INCLUDING BUT NOT LIMITED TO ANY DEFENSE THEREOF), OR OTHER SIMILAR COSTS.
//   35 
//   36   Should you have any questions regarding your right to use this Software,
//   37   contact Texas Instruments Incorporated at www.TI.com.
//   38 ******************************************************************************/
//   39 
//   40 /*********************************************************************
//   41   This application isn't intended to do anything useful, it is
//   42   intended to be a simple example of an application's structure.
//   43 
//   44   This application sends "Hello World" to another "Generic"
//   45   application every 5 seconds.  The application will also
//   46   receives "Hello World" packets.
//   47 
//   48   The "Hello World" messages are sent/received as MSG type message.
//   49 
//   50   This applications doesn't have a profile, so it handles everything
//   51   directly - itself.
//   52 
//   53   Key control:
//   54     SW1:
//   55     SW2:  initiates end device binding
//   56     SW3:
//   57     SW4:  initiates a match description request
//   58 *********************************************************************/
//   59 
//   60 /*********************************************************************
//   61  * INCLUDES
//   62  */
//   63 #include "OSAL.h"
//   64 #include "AF.h"
//   65 #include "ZDApp.h"
//   66 #include "ZDObject.h"
//   67 #include "ZDProfile.h"
//   68 #include "MT_UART.h"
//   69 #include "SwqAPP.h"
//   70 #include "DebugTrace.h"
//   71 
//   72 #if !defined( WIN32 )
//   73   #include "OnBoard.h"
//   74 #endif
//   75 
//   76 /* HAL */
//   77 #include "hal_lcd.h"
//   78 #include "hal_led.h"
//   79 #include "hal_key.h"
//   80 #include "hal_uart.h"
//   81 
//   82 /* RTOS */
//   83 #if defined( IAR_ARMCM3_LM )
//   84 #include "RTOS_App.h"
//   85 #endif  
//   86 
//   87 /*********************************************************************
//   88  * MACROS
//   89  */
//   90 
//   91 /*********************************************************************
//   92  * CONSTANTS
//   93  */
//   94 
//   95 /*********************************************************************
//   96  * TYPEDEFS
//   97  */
//   98 
//   99 /*********************************************************************
//  100  * GLOBAL VARIABLES
//  101  */
//  102 // This list should be filled with Application specific Cluster IDs.

        RSEG XDATA_ROM_C:CONST:REORDER:NOROOT(0)
        DATA16
//  103 const cId_t SwqAPP_ClusterList[GENERICAPP_MAX_CLUSTERS] =
SwqAPP_ClusterList:
        DW 1
//  104 {
//  105   GENERICAPP_CLUSTERID
//  106 };
//  107 

        RSEG XDATA_ROM_C:CONST:REORDER:NOROOT(0)
        DATA8
//  108 const SimpleDescriptionFormat_t SwqAPP_SimpleDesc =
SwqAPP_SimpleDesc:
        DB 10
        DATA16
        DW 3844
        DW 1
        DATA8
        DB 0
        DB 1
        DATA16
        DW SwqAPP_ClusterList
        DATA8
        DB 1
        DATA16
        DW SwqAPP_ClusterList
//  109 {
//  110   GENERICAPP_ENDPOINT,              //  int Endpoint;
//  111   GENERICAPP_PROFID,                //  uint16 AppProfId[2];
//  112   GENERICAPP_DEVICEID,              //  uint16 AppDeviceId[2];
//  113   GENERICAPP_DEVICE_VERSION,        //  int   AppDevVer:4;
//  114   GENERICAPP_FLAGS,                 //  int   AppFlags:4;
//  115   GENERICAPP_MAX_CLUSTERS,          //  byte  AppNumInClusters;
//  116   (cId_t *)SwqAPP_ClusterList,  //  byte *pAppInClusterList;
//  117   GENERICAPP_MAX_CLUSTERS,          //  byte  AppNumInClusters;
//  118   (cId_t *)SwqAPP_ClusterList   //  byte *pAppInClusterList;
//  119 };
//  120 
//  121 // This is the Endpoint/Interface description.  It is defined here, but
//  122 // filled-in in SwqAPP_Init().  Another way to go would be to fill
//  123 // in the structure here and make it a "const" (in code space).  The
//  124 // way it's defined in this sample app it is define in RAM.

        RSEG XDATA_Z:XDATA:NOROOT(0)
        DATA8
//  125 endPointDesc_t SwqAPP_epDesc;
SwqAPP_epDesc:
        DS 6
        REQUIRE __INIT_XDATA_Z
//  126 
//  127 /*********************************************************************
//  128  * EXTERNAL VARIABLES
//  129  */
//  130 
//  131 /*********************************************************************
//  132  * EXTERNAL FUNCTIONS
//  133  */
//  134 
//  135 /*********************************************************************
//  136  * LOCAL VARIABLES
//  137  */

        RSEG XDATA_Z:XDATA:NOROOT(0)
        DATA8
//  138 byte SwqAPP_TaskID;   // Task ID for internal task/event processing
SwqAPP_TaskID:
        DS 1
        REQUIRE __INIT_XDATA_Z
//  139                           // This variable will be received when
//  140                           // SwqAPP_Init() is called.

        RSEG XDATA_Z:XDATA:NOROOT(0)
        DATA8
//  141 devStates_t SwqAPP_NwkState;
SwqAPP_NwkState:
        DS 1
        REQUIRE __INIT_XDATA_Z
//  142 
//  143 

        RSEG XDATA_Z:XDATA:NOROOT(0)
        DATA8
//  144 byte SwqAPP_TransID;  // This is the unique message ID (counter)
SwqAPP_TransID:
        DS 1
        REQUIRE __INIT_XDATA_Z
//  145 

        RSEG XDATA_Z:XDATA:NOROOT(0)
        DATA8
//  146 afAddrType_t SwqAPP_DstAddr;
SwqAPP_DstAddr:
        DS 12
        REQUIRE __INIT_XDATA_Z
//  147 
//  148 /*********************************************************************
//  149  * LOCAL FUNCTIONS
//  150  */
//  151 static void SwqAPP_ProcessZDOMsgs( zdoIncomingMsg_t *inMsg );
//  152 static void SwqAPP_HandleKeys( byte shift, byte keys );
//  153 static void SwqAPP_MessageMSGCB( afIncomingMSGPacket_t *pckt );
//  154 static void SwqAPP_SendTheMessage( void );
//  155 
//  156 #if defined( IAR_ARMCM3_LM )
//  157 static void SwqAPP_ProcessRtosMessage( void );
//  158 #endif
//  159 
//  160 /*********************************************************************
//  161  * NETWORK LAYER CALLBACKS
//  162  */
//  163 
//  164 /*********************************************************************
//  165  * PUBLIC FUNCTIONS
//  166  */
//  167 
//  168 /*********************************************************************
//  169  * @fn      SwqAPP_Init
//  170  *
//  171  * @brief   Initialization function for the Generic App Task.
//  172  *          This is called during initialization and should contain
//  173  *          any application specific initialization (ie. hardware
//  174  *          initialization/setup, table initialization, power up
//  175  *          notificaiton ... ).
//  176  *
//  177  * @param   task_id - the ID assigned by OSAL.  This ID should be
//  178  *                    used to send messages and set timers.
//  179  *
//  180  * @return  none
//  181  */

        RSEG BANKED_CODE:CODE:NOROOT(0)
//  182 void SwqAPP_Init( uint8 task_id )
SwqAPP_Init:
        CFI Block cfiBlock0 Using cfiCommon0
        CFI Function SwqAPP_Init
        CODE
//  183 {
        FUNCALL SwqAPP_Init, MT_UartInit
        LOCFRAME ISTACK, 0, STACK
        LOCFRAME PSTACK, 0, STACK
        LOCFRAME XSTACK, 9, STACK
        LOCFRAME IOVERLAY, 0, STATIC
        LOCFRAME DOVERLAY, 0, STATIC
        ARGFRAME ISTACK, 0, STACK
        ARGFRAME PSTACK, 0, STACK
        ARGFRAME XSTACK, 9, STACK
        ARGFRAME IOVERLAY, 0, STATIC
        ARGFRAME DOVERLAY, 0, STATIC
        FUNCALL SwqAPP_Init, MT_UartRegisterTaskID
        LOCFRAME ISTACK, 0, STACK
        LOCFRAME PSTACK, 0, STACK
        LOCFRAME XSTACK, 9, STACK
        LOCFRAME IOVERLAY, 0, STATIC
        LOCFRAME DOVERLAY, 0, STATIC
        ARGFRAME ISTACK, 0, STACK
        ARGFRAME PSTACK, 0, STACK
        ARGFRAME XSTACK, 9, STACK
        ARGFRAME IOVERLAY, 0, STATIC
        ARGFRAME DOVERLAY, 0, STATIC
        FUNCALL SwqAPP_Init, HalUARTWrite
        LOCFRAME ISTACK, 0, STACK
        LOCFRAME PSTACK, 0, STACK
        LOCFRAME XSTACK, 9, STACK
        LOCFRAME IOVERLAY, 0, STATIC
        LOCFRAME DOVERLAY, 0, STATIC
        ARGFRAME ISTACK, 0, STACK
        ARGFRAME PSTACK, 0, STACK
        ARGFRAME XSTACK, 9, STACK
        ARGFRAME IOVERLAY, 0, STATIC
        ARGFRAME DOVERLAY, 0, STATIC
        FUNCALL SwqAPP_Init, afRegister
        LOCFRAME ISTACK, 0, STACK
        LOCFRAME PSTACK, 0, STACK
        LOCFRAME XSTACK, 9, STACK
        LOCFRAME IOVERLAY, 0, STATIC
        LOCFRAME DOVERLAY, 0, STATIC
        ARGFRAME ISTACK, 0, STACK
        ARGFRAME PSTACK, 0, STACK
        ARGFRAME XSTACK, 9, STACK
        ARGFRAME IOVERLAY, 0, STATIC
        ARGFRAME DOVERLAY, 0, STATIC
        FUNCALL SwqAPP_Init, RegisterForKeys
        LOCFRAME ISTACK, 0, STACK
        LOCFRAME PSTACK, 0, STACK
        LOCFRAME XSTACK, 9, STACK
        LOCFRAME IOVERLAY, 0, STATIC
        LOCFRAME DOVERLAY, 0, STATIC
        ARGFRAME ISTACK, 0, STACK
        ARGFRAME PSTACK, 0, STACK
        ARGFRAME XSTACK, 9, STACK
        ARGFRAME IOVERLAY, 0, STATIC
        ARGFRAME DOVERLAY, 0, STATIC
        FUNCALL SwqAPP_Init, ZDO_RegisterForZDOMsg
        LOCFRAME ISTACK, 0, STACK
        LOCFRAME PSTACK, 0, STACK
        LOCFRAME XSTACK, 9, STACK
        LOCFRAME IOVERLAY, 0, STATIC
        LOCFRAME DOVERLAY, 0, STATIC
        ARGFRAME ISTACK, 0, STACK
        ARGFRAME PSTACK, 0, STACK
        ARGFRAME XSTACK, 9, STACK
        ARGFRAME IOVERLAY, 0, STATIC
        ARGFRAME DOVERLAY, 0, STATIC
        FUNCALL SwqAPP_Init, ZDO_RegisterForZDOMsg
        LOCFRAME ISTACK, 0, STACK
        LOCFRAME PSTACK, 0, STACK
        LOCFRAME XSTACK, 9, STACK
        LOCFRAME IOVERLAY, 0, STATIC
        LOCFRAME DOVERLAY, 0, STATIC
        ARGFRAME ISTACK, 0, STACK
        ARGFRAME PSTACK, 0, STACK
        ARGFRAME XSTACK, 9, STACK
        ARGFRAME IOVERLAY, 0, STATIC
        ARGFRAME DOVERLAY, 0, STATIC
        MOV     A,#-0x9
        LCALL   ?BANKED_ENTER_XDATA
        CFI DPH0 load(1, XDATA, add(CFA_XSP16, literal(-1)))
        CFI DPL0 load(1, XDATA, add(CFA_XSP16, literal(-2)))
        CFI ?BRET_EXT load(1, XDATA, add(CFA_XSP16, literal(-3)))
        CFI ?RET_HIGH load(1, XDATA, add(CFA_XSP16, literal(-4)))
        CFI ?RET_LOW load(1, XDATA, add(CFA_XSP16, literal(-5)))
        CFI R7 load(1, XDATA, add(CFA_XSP16, literal(-6)))
        CFI V0 load(1, XDATA, add(CFA_XSP16, literal(-7)))
        CFI VB load(1, XDATA, add(CFA_XSP16, literal(-8)))
        CFI R6 load(1, XDATA, add(CFA_XSP16, literal(-9)))
        CFI CFA_SP SP+0
        CFI CFA_XSP16 add(XSP16, 9)
        ; Saved register size: 9
        ; Auto size: 0
        MOV     A,R1
        MOV     R6,A
//  184   SwqAPP_TaskID = task_id;
        MOV     DPTR,#SwqAPP_TaskID
        MOVX    @DPTR,A
//  185   SwqAPP_NwkState = DEV_INIT;
        MOV     DPTR,#SwqAPP_NwkState
        MOV     A,#0x1
        MOVX    @DPTR,A
//  186   SwqAPP_TransID = 0;
        MOV     DPTR,#SwqAPP_TransID
        CLR     A
        MOVX    @DPTR,A
//  187   MT_UartInit ();
        ; Setup parameters for call to function MT_UartInit
        LCALL   ??MT_UartInit?relay
//  188   MT_UartRegisterTaskID(task_id );
        ; Setup parameters for call to function MT_UartRegisterTaskID
        MOV     A,R6
        MOV     R1,A
        LCALL   ??MT_UartRegisterTaskID?relay
//  189   HalUARTWrite (0,"a",1);
        ; Setup parameters for call to function HalUARTWrite
        MOV     R4,#0x1
        MOV     R5,#0x0
        MOV     R2,#`?<Constant "a">` & 0xff
        MOV     R3,#(`?<Constant "a">` >> 8) & 0xff
        MOV     R1,#0x0
        LCALL   ??HalUARTWrite?relay
//  190 //  if((const char *)U0DBUF=="a")
//  191 //  {
//  192 //   HalLedSet( 0x01, 0x01 );
//  193 //  }
//  194  
//  195   
//  196 
//  197   // Device hardware initialization can be added here or in main() (Zmain.c).
//  198   // If the hardware is application specific - add it here.
//  199   // If the hardware is other parts of the device add it in main().
//  200 
//  201   SwqAPP_DstAddr.addrMode = (afAddrMode_t)AddrNotPresent;
        MOV     DPTR,#SwqAPP_DstAddr + 8
        CLR     A
        MOVX    @DPTR,A
//  202   SwqAPP_DstAddr.endPoint = 0;
        INC     DPTR
        MOVX    @DPTR,A
//  203   SwqAPP_DstAddr.addr.shortAddr = 0;
        MOV     DPTR,#SwqAPP_DstAddr
        MOVX    @DPTR,A
        INC     DPTR
        MOVX    @DPTR,A
//  204 
//  205   // Fill out the endpoint description.
//  206   SwqAPP_epDesc.endPoint = GENERICAPP_ENDPOINT;
        MOV     DPTR,#SwqAPP_epDesc
        MOV     A,#0xa
        MOVX    @DPTR,A
//  207   SwqAPP_epDesc.task_id = &SwqAPP_TaskID;
        INC     DPTR
        MOV     A,#SwqAPP_TaskID & 0xff
        MOVX    @DPTR,A
        INC     DPTR
        MOV     A,#(SwqAPP_TaskID >> 8) & 0xff
        MOVX    @DPTR,A
//  208   SwqAPP_epDesc.simpleDesc
//  209             = (SimpleDescriptionFormat_t *)&SwqAPP_SimpleDesc;
        INC     DPTR
        MOV     A,#SwqAPP_SimpleDesc & 0xff
        MOVX    @DPTR,A
        INC     DPTR
        MOV     A,#(SwqAPP_SimpleDesc >> 8) & 0xff
        MOVX    @DPTR,A
//  210   SwqAPP_epDesc.latencyReq = noLatencyReqs;
        INC     DPTR
        CLR     A
        MOVX    @DPTR,A
//  211 
//  212   // Register the endpoint description with the AF
//  213   afRegister( &SwqAPP_epDesc );
        ; Setup parameters for call to function afRegister
        MOV     R2,#SwqAPP_epDesc & 0xff
        MOV     R3,#(SwqAPP_epDesc >> 8) & 0xff
        LCALL   ??afRegister?relay
//  214 
//  215   // Register for all key events - This app will handle all key events
//  216   RegisterForKeys( SwqAPP_TaskID );
        ; Setup parameters for call to function RegisterForKeys
        MOV     DPTR,#SwqAPP_TaskID
        MOVX    A,@DPTR
        MOV     R1,A
        LCALL   ??RegisterForKeys?relay
//  217 
//  218   // Update the display
//  219 #if defined ( LCD_SUPPORTED )
//  220   HalLcdWriteString( "SwqAPP", HAL_LCD_LINE_1 );
//  221 #endif
//  222 
//  223   ZDO_RegisterForZDOMsg( SwqAPP_TaskID, End_Device_Bind_rsp );
        ; Setup parameters for call to function ZDO_RegisterForZDOMsg
        MOV     R2,#0x20
        MOV     R3,#-0x80
        MOV     DPTR,#SwqAPP_TaskID
        MOVX    A,@DPTR
        MOV     R1,A
        LCALL   ??ZDO_RegisterForZDOMsg?relay
//  224   ZDO_RegisterForZDOMsg( SwqAPP_TaskID, Match_Desc_rsp );
        ; Setup parameters for call to function ZDO_RegisterForZDOMsg
        MOV     R2,#0x6
        MOV     R3,#-0x80
        MOV     DPTR,#SwqAPP_TaskID
        MOVX    A,@DPTR
        MOV     R1,A
        LCALL   ??ZDO_RegisterForZDOMsg?relay
//  225 
//  226 #if defined( IAR_ARMCM3_LM )
//  227   // Register this task with RTOS task initiator
//  228   RTOS_RegisterApp( task_id, GENERICAPP_RTOS_MSG_EVT );
//  229 #endif
//  230 }
        MOV     R7,#0x1
        LJMP    ?BANKED_LEAVE_XDATA
        CFI EndBlock cfiBlock0
//  231 
//  232 /*********************************************************************
//  233  * @fn      SwqAPP_ProcessEvent
//  234  *
//  235  * @brief   Generic Application Task event processor.  This function
//  236  *          is called to process all events for the task.  Events
//  237  *          include timers, messages and any other user defined events.
//  238  *
//  239  * @param   task_id  - The OSAL assigned task ID.
//  240  * @param   events - events to process.  This is a bit map and can
//  241  *                   contain more than one event.
//  242  *
//  243  * @return  none
//  244  */

        RSEG BANKED_CODE:CODE:NOROOT(0)
//  245 uint16 SwqAPP_ProcessEvent( uint8 task_id, uint16 events )
SwqAPP_ProcessEvent:
        CFI Block cfiBlock1 Using cfiCommon0
        CFI Function SwqAPP_ProcessEvent
        CODE
//  246 {
        FUNCALL SwqAPP_ProcessEvent, osal_msg_receive
        LOCFRAME ISTACK, 0, STACK
        LOCFRAME PSTACK, 0, STACK
        LOCFRAME XSTACK, 35, STACK
        LOCFRAME IOVERLAY, 0, STATIC
        LOCFRAME DOVERLAY, 0, STATIC
        ARGFRAME ISTACK, 0, STACK
        ARGFRAME PSTACK, 0, STACK
        ARGFRAME XSTACK, 35, STACK
        ARGFRAME IOVERLAY, 0, STATIC
        ARGFRAME DOVERLAY, 0, STATIC
        FUNCALL SwqAPP_ProcessEvent, osal_start_timerEx
        LOCFRAME ISTACK, 0, STACK
        LOCFRAME PSTACK, 0, STACK
        LOCFRAME XSTACK, 35, STACK
        LOCFRAME IOVERLAY, 0, STATIC
        LOCFRAME DOVERLAY, 0, STATIC
        ARGFRAME ISTACK, 0, STACK
        ARGFRAME PSTACK, 0, STACK
        ARGFRAME XSTACK, 35, STACK
        ARGFRAME IOVERLAY, 0, STATIC
        ARGFRAME DOVERLAY, 0, STATIC
        FUNCALL SwqAPP_ProcessEvent, osal_msg_deallocate
        LOCFRAME ISTACK, 0, STACK
        LOCFRAME PSTACK, 0, STACK
        LOCFRAME XSTACK, 35, STACK
        LOCFRAME IOVERLAY, 0, STATIC
        LOCFRAME DOVERLAY, 0, STATIC
        ARGFRAME ISTACK, 0, STACK
        ARGFRAME PSTACK, 0, STACK
        ARGFRAME XSTACK, 35, STACK
        ARGFRAME IOVERLAY, 0, STATIC
        ARGFRAME DOVERLAY, 0, STATIC
        FUNCALL SwqAPP_ProcessEvent, osal_msg_receive
        LOCFRAME ISTACK, 0, STACK
        LOCFRAME PSTACK, 0, STACK
        LOCFRAME XSTACK, 35, STACK
        LOCFRAME IOVERLAY, 0, STATIC
        LOCFRAME DOVERLAY, 0, STATIC
        ARGFRAME ISTACK, 0, STACK
        ARGFRAME PSTACK, 0, STACK
        ARGFRAME XSTACK, 35, STACK
        ARGFRAME IOVERLAY, 0, STATIC
        ARGFRAME DOVERLAY, 0, STATIC
        FUNCALL SwqAPP_ProcessEvent, ZDO_ParseEPListRsp
        LOCFRAME ISTACK, 0, STACK
        LOCFRAME PSTACK, 0, STACK
        LOCFRAME XSTACK, 35, STACK
        LOCFRAME IOVERLAY, 0, STATIC
        LOCFRAME DOVERLAY, 0, STATIC
        ARGFRAME ISTACK, 0, STACK
        ARGFRAME PSTACK, 0, STACK
        ARGFRAME XSTACK, 35, STACK
        ARGFRAME IOVERLAY, 0, STATIC
        ARGFRAME DOVERLAY, 0, STATIC
        FUNCALL SwqAPP_ProcessEvent, HalLedSet
        LOCFRAME ISTACK, 0, STACK
        LOCFRAME PSTACK, 0, STACK
        LOCFRAME XSTACK, 35, STACK
        LOCFRAME IOVERLAY, 0, STATIC
        LOCFRAME DOVERLAY, 0, STATIC
        ARGFRAME ISTACK, 0, STACK
        ARGFRAME PSTACK, 0, STACK
        ARGFRAME XSTACK, 35, STACK
        ARGFRAME IOVERLAY, 0, STATIC
        ARGFRAME DOVERLAY, 0, STATIC
        FUNCALL SwqAPP_ProcessEvent, osal_mem_free
        LOCFRAME ISTACK, 0, STACK
        LOCFRAME PSTACK, 0, STACK
        LOCFRAME XSTACK, 35, STACK
        LOCFRAME IOVERLAY, 0, STATIC
        LOCFRAME DOVERLAY, 0, STATIC
        ARGFRAME ISTACK, 0, STACK
        ARGFRAME PSTACK, 0, STACK
        ARGFRAME XSTACK, 35, STACK
        ARGFRAME IOVERLAY, 0, STATIC
        ARGFRAME DOVERLAY, 0, STATIC
        FUNCALL SwqAPP_ProcessEvent, HalLedSet
        LOCFRAME ISTACK, 0, STACK
        LOCFRAME PSTACK, 0, STACK
        LOCFRAME XSTACK, 35, STACK
        LOCFRAME IOVERLAY, 0, STATIC
        LOCFRAME DOVERLAY, 0, STATIC
        ARGFRAME ISTACK, 0, STACK
        ARGFRAME PSTACK, 0, STACK
        ARGFRAME XSTACK, 35, STACK
        ARGFRAME IOVERLAY, 0, STATIC
        ARGFRAME DOVERLAY, 0, STATIC
        FUNCALL SwqAPP_ProcessEvent, HalLedSet
        LOCFRAME ISTACK, 0, STACK
        LOCFRAME PSTACK, 0, STACK
        LOCFRAME XSTACK, 35, STACK
        LOCFRAME IOVERLAY, 0, STATIC
        LOCFRAME DOVERLAY, 0, STATIC
        ARGFRAME ISTACK, 0, STACK
        ARGFRAME PSTACK, 0, STACK
        ARGFRAME XSTACK, 35, STACK
        ARGFRAME IOVERLAY, 0, STATIC
        ARGFRAME DOVERLAY, 0, STATIC
        FUNCALL SwqAPP_ProcessEvent, HalLedSet
        LOCFRAME ISTACK, 0, STACK
        LOCFRAME PSTACK, 0, STACK
        LOCFRAME XSTACK, 35, STACK
        LOCFRAME IOVERLAY, 0, STATIC
        LOCFRAME DOVERLAY, 0, STATIC
        ARGFRAME ISTACK, 0, STACK
        ARGFRAME PSTACK, 0, STACK
        ARGFRAME XSTACK, 35, STACK
        ARGFRAME IOVERLAY, 0, STATIC
        ARGFRAME DOVERLAY, 0, STATIC
        FUNCALL SwqAPP_ProcessEvent, NLME_GetShortAddr
        LOCFRAME ISTACK, 0, STACK
        LOCFRAME PSTACK, 0, STACK
        LOCFRAME XSTACK, 35, STACK
        LOCFRAME IOVERLAY, 0, STATIC
        LOCFRAME DOVERLAY, 0, STATIC
        ARGFRAME ISTACK, 0, STACK
        ARGFRAME PSTACK, 0, STACK
        ARGFRAME XSTACK, 35, STACK
        ARGFRAME IOVERLAY, 0, STATIC
        ARGFRAME DOVERLAY, 0, STATIC
        FUNCALL SwqAPP_ProcessEvent, ZDP_EndDeviceBindReq
        LOCFRAME ISTACK, 0, STACK
        LOCFRAME PSTACK, 0, STACK
        LOCFRAME XSTACK, 44, STACK
        LOCFRAME IOVERLAY, 0, STATIC
        LOCFRAME DOVERLAY, 0, STATIC
        ARGFRAME ISTACK, 0, STACK
        ARGFRAME PSTACK, 0, STACK
        ARGFRAME XSTACK, 44, STACK
        ARGFRAME IOVERLAY, 0, STATIC
        ARGFRAME DOVERLAY, 0, STATIC
        FUNCALL SwqAPP_ProcessEvent, HalLedSet
        LOCFRAME ISTACK, 0, STACK
        LOCFRAME PSTACK, 0, STACK
        LOCFRAME XSTACK, 35, STACK
        LOCFRAME IOVERLAY, 0, STATIC
        LOCFRAME DOVERLAY, 0, STATIC
        ARGFRAME ISTACK, 0, STACK
        ARGFRAME PSTACK, 0, STACK
        ARGFRAME XSTACK, 35, STACK
        ARGFRAME IOVERLAY, 0, STATIC
        ARGFRAME DOVERLAY, 0, STATIC
        FUNCALL SwqAPP_ProcessEvent, ZDP_MatchDescReq
        LOCFRAME ISTACK, 0, STACK
        LOCFRAME PSTACK, 0, STACK
        LOCFRAME XSTACK, 43, STACK
        LOCFRAME IOVERLAY, 0, STATIC
        LOCFRAME DOVERLAY, 0, STATIC
        ARGFRAME ISTACK, 0, STACK
        ARGFRAME PSTACK, 0, STACK
        ARGFRAME XSTACK, 43, STACK
        ARGFRAME IOVERLAY, 0, STATIC
        ARGFRAME DOVERLAY, 0, STATIC
        FUNCALL SwqAPP_ProcessEvent, osal_strlen
        LOCFRAME ISTACK, 0, STACK
        LOCFRAME PSTACK, 0, STACK
        LOCFRAME XSTACK, 40, STACK
        LOCFRAME IOVERLAY, 0, STATIC
        LOCFRAME DOVERLAY, 0, STATIC
        ARGFRAME ISTACK, 0, STACK
        ARGFRAME PSTACK, 0, STACK
        ARGFRAME XSTACK, 40, STACK
        ARGFRAME IOVERLAY, 0, STATIC
        ARGFRAME DOVERLAY, 0, STATIC
        FUNCALL SwqAPP_ProcessEvent, AF_DataRequest
        LOCFRAME ISTACK, 0, STACK
        LOCFRAME PSTACK, 0, STACK
        LOCFRAME XSTACK, 44, STACK
        LOCFRAME IOVERLAY, 0, STATIC
        LOCFRAME DOVERLAY, 0, STATIC
        ARGFRAME ISTACK, 0, STACK
        ARGFRAME PSTACK, 0, STACK
        ARGFRAME XSTACK, 44, STACK
        ARGFRAME IOVERLAY, 0, STATIC
        ARGFRAME DOVERLAY, 0, STATIC
        FUNCALL SwqAPP_ProcessEvent, osal_start_timerEx
        LOCFRAME ISTACK, 0, STACK
        LOCFRAME PSTACK, 0, STACK
        LOCFRAME XSTACK, 35, STACK
        LOCFRAME IOVERLAY, 0, STATIC
        LOCFRAME DOVERLAY, 0, STATIC
        ARGFRAME ISTACK, 0, STACK
        ARGFRAME PSTACK, 0, STACK
        ARGFRAME XSTACK, 35, STACK
        ARGFRAME IOVERLAY, 0, STATIC
        ARGFRAME DOVERLAY, 0, STATIC
        MOV     A,#-0xe
        LCALL   ?BANKED_ENTER_XDATA
        CFI DPH0 load(1, XDATA, add(CFA_XSP16, literal(-1)))
        CFI DPL0 load(1, XDATA, add(CFA_XSP16, literal(-2)))
        CFI ?BRET_EXT load(1, XDATA, add(CFA_XSP16, literal(-3)))
        CFI ?RET_HIGH load(1, XDATA, add(CFA_XSP16, literal(-4)))
        CFI ?RET_LOW load(1, XDATA, add(CFA_XSP16, literal(-5)))
        CFI R7 load(1, XDATA, add(CFA_XSP16, literal(-6)))
        CFI V5 load(1, XDATA, add(CFA_XSP16, literal(-7)))
        CFI V4 load(1, XDATA, add(CFA_XSP16, literal(-8)))
        CFI V3 load(1, XDATA, add(CFA_XSP16, literal(-9)))
        CFI V2 load(1, XDATA, add(CFA_XSP16, literal(-10)))
        CFI V1 load(1, XDATA, add(CFA_XSP16, literal(-11)))
        CFI V0 load(1, XDATA, add(CFA_XSP16, literal(-12)))
        CFI VB load(1, XDATA, add(CFA_XSP16, literal(-13)))
        CFI R6 load(1, XDATA, add(CFA_XSP16, literal(-14)))
        CFI CFA_SP SP+0
        CFI CFA_XSP16 add(XSP16, 14)
        ; Saved register size: 14
        ; Auto size: 21
        MOV     A,#-0x15
        LCALL   ?ALLOC_XSTACK8
        CFI CFA_XSP16 add(XSP16, 35)
        MOV     A,R2
        MOV     R6,A
        MOV     A,R3
        MOV     R7,A
//  247   afIncomingMSGPacket_t *MSGpkt;
//  248   afDataConfirm_t *afDataConfirm;
//  249 
//  250   // Data Confirmation message fields
//  251   byte sentEP;
//  252   ZStatus_t sentStatus;
//  253   byte sentTransID;       // This should match the value sent
//  254   (void)task_id;  // Intentionally unreferenced parameter
//  255 
//  256   if ( events & SYS_EVENT_MSG )
        ANL     A,#0x80
        JNZ     $+5
        LJMP    ??SwqAPP_ProcessEvent_0 & 0xFFFF
//  257   {
//  258     MSGpkt = (afIncomingMSGPacket_t *)osal_msg_receive( SwqAPP_TaskID );
        ; Setup parameters for call to function osal_msg_receive
        SJMP    ??SwqAPP_ProcessEvent_1
//  259     while ( MSGpkt )
//  260     {
//  261       switch ( MSGpkt->hdr.event )
//  262       {
//  263         case ZDO_CB_MSG:
//  264           SwqAPP_ProcessZDOMsgs( (zdoIncomingMsg_t *)MSGpkt );
//  265           break;
//  266 
//  267         case KEY_CHANGE:
//  268           SwqAPP_HandleKeys( ((keyChange_t *)MSGpkt)->state, ((keyChange_t *)MSGpkt)->keys );
//  269           break;
//  270 
//  271         case AF_DATA_CONFIRM_CMD:
//  272           // This message is received as a confirmation of a data packet sent.
//  273           // The status is of ZStatus_t type [defined in ZComDef.h]
//  274           // The message fields are defined in AF.h
//  275           afDataConfirm = (afDataConfirm_t *)MSGpkt;
//  276           sentEP = afDataConfirm->endpoint;
//  277           sentStatus = afDataConfirm->hdr.status;
//  278           sentTransID = afDataConfirm->transID;
//  279           (void)sentEP;
//  280           (void)sentTransID;
//  281 
//  282           // Action taken when confirmation is received.
//  283           if ( sentStatus != ZSuccess )
//  284           {
//  285             // The data wasn't delivered -- Do something
//  286           }
//  287           break;
//  288 
//  289         case AF_INCOMING_MSG_CMD:
//  290           SwqAPP_MessageMSGCB( MSGpkt );
//  291           break;
//  292 
//  293         case ZDO_STATE_CHANGE:
//  294           SwqAPP_NwkState = (devStates_t)(MSGpkt->hdr.status);
??SwqAPP_ProcessEvent_2:
        INC     DPTR
        MOVX    A,@DPTR
        MOV     DPTR,#SwqAPP_NwkState
        MOVX    @DPTR,A
//  295           if ( (SwqAPP_NwkState == DEV_ZB_COORD)
//  296               || (SwqAPP_NwkState == DEV_ROUTER)
//  297               || (SwqAPP_NwkState == DEV_END_DEVICE) )
        XRL     A,#0x9
        JZ      ??SwqAPP_ProcessEvent_3
        MOVX    A,@DPTR
        XRL     A,#0x7
        JZ      ??SwqAPP_ProcessEvent_3
        MOVX    A,@DPTR
        XRL     A,#0x6
        JNZ     ??SwqAPP_ProcessEvent_4
//  298           {
//  299             // Start sending "the" message in a regular interval.
//  300             osal_start_timerEx( SwqAPP_TaskID,
//  301                                 GENERICAPP_SEND_MSG_EVT,
//  302                                 GENERICAPP_SEND_MSG_TIMEOUT );
??SwqAPP_ProcessEvent_3:
        ; Setup parameters for call to function osal_start_timerEx
        MOV     R4,#-0x78
        MOV     R5,#0x13
        MOV     R2,#0x1
        MOV     R3,#0x0
        MOV     DPTR,#SwqAPP_TaskID
        MOVX    A,@DPTR
        MOV     R1,A
        LCALL   ??osal_start_timerEx?relay
//  303           }
//  304           break;
//  305 
//  306         default:
//  307           break;
//  308       }
//  309 
//  310       // Release the memory
//  311       osal_msg_deallocate( (uint8 *)MSGpkt );
??SwqAPP_ProcessEvent_4:
        ; Setup parameters for call to function osal_msg_deallocate
        MOV     R2,?V0 + 0
        MOV     R3,?V0 + 1
        LCALL   ??osal_msg_deallocate?relay
//  312 
//  313       // Next
//  314       MSGpkt = (afIncomingMSGPacket_t *)osal_msg_receive( SwqAPP_TaskID );
        ; Setup parameters for call to function osal_msg_receive
??SwqAPP_ProcessEvent_1:
        MOV     DPTR,#SwqAPP_TaskID
        MOVX    A,@DPTR
        MOV     R1,A
        LCALL   ??osal_msg_receive?relay
        MOV     ?V0 + 0,R2
        MOV     ?V0 + 1,R3
        MOV     A,?V0 + 0
        ORL     A,?V0 + 1
        JNZ     $+5
        LJMP    ??SwqAPP_ProcessEvent_5 & 0xFFFF
        MOV     DPL,?V0 + 0
        MOV     DPH,?V0 + 1
        MOVX    A,@DPTR
        ADD     A,#0x40
        JNZ     $+5
        LJMP    ??SwqAPP_ProcessEvent_6 & 0xFFFF
        ADD     A,#-0x11
        JZ      ??SwqAPP_ProcessEvent_2
        ADD     A,#-0x2
        JNZ     ??SwqAPP_ProcessEvent_4
        MOV     A,?V0 + 0
        ADD     A,#0xc
        MOV     DPL,A
        MOV     A,?V0 + 1
        ADDC    A,#0x0
        MOV     DPH,A
        MOVX    A,@DPTR
        MOV     ?V0 + 2,A
        INC     DPTR
        MOVX    A,@DPTR
        MOV     ?V0 + 3,A
        MOV     R0,#?V0 + 2
        LCALL   ?US_SWITCH_SPARSE
`?<Jumptable for SwqAPP_ProcessEvent>_0`:
        DATA
        DATA16
        DATA
        DATA16
        DATA
        DATA16
        DW        0
        DATA
        DATA16
        DATA
        DATA16
        DATA
        DATA16
        DW        2
        DATA
        DATA16
        DATA
        DATA16
        DATA
        DATA16
        DW        32774
        DATA
        DATA16
        DATA
        DATA16
        DATA
        DATA16
        DW        ??SwqAPP_ProcessEvent_7
        DATA
        DATA16
        DATA
        DATA16
        DATA
        DATA16
        DW        32800
        DATA
        DATA16
        DATA
        DATA16
        DATA
        DATA16
        DW        ??SwqAPP_ProcessEvent_8
        DATA
        DATA16
        DATA
        DATA16
        DW        ??SwqAPP_ProcessEvent_4
        CODE
??SwqAPP_ProcessEvent_7:
        ; Setup parameters for call to function ZDO_ParseEPListRsp
        MOV     R2,?V0 + 0
        MOV     R3,?V0 + 1
        LCALL   ??ZDO_ParseEPListRsp?relay
        MOV     ?V0 + 2,R2
        MOV     ?V0 + 3,R3
        MOV     A,R2
        ORL     A,?V0 + 3
        JZ      ??SwqAPP_ProcessEvent_4
        MOV     DPL,R2
        MOV     DPH,R3
        MOVX    A,@DPTR
        JNZ     ??SwqAPP_ProcessEvent_9
        INC     DPTR
        INC     DPTR
        INC     DPTR
        MOVX    A,@DPTR
        JZ      ??SwqAPP_ProcessEvent_9
        MOV     DPTR,#SwqAPP_DstAddr + 8
        MOV     A,#0x2
        MOVX    @DPTR,A
        MOV     DPL,R2
        MOV     DPH,R3
        INC     DPTR
        MOVX    A,@DPTR
        MOV     R0,A
        INC     DPTR
        MOVX    A,@DPTR
        MOV     R1,A
        MOV     DPTR,#SwqAPP_DstAddr
        MOV     A,R0
        MOVX    @DPTR,A
        INC     DPTR
        MOV     A,R1
        MOVX    @DPTR,A
        MOV     DPL,R2
        MOV     DPH,R3
        INC     DPTR
        INC     DPTR
        INC     DPTR
        INC     DPTR
        MOVX    A,@DPTR
        MOV     DPTR,#SwqAPP_DstAddr + 9
        MOVX    @DPTR,A
        ; Setup parameters for call to function HalLedSet
        MOV     R2,#0x1
        MOV     R1,#0x8
        LCALL   ??HalLedSet?relay
??SwqAPP_ProcessEvent_9:
        ; Setup parameters for call to function osal_mem_free
        MOV     R2,?V0 + 2
        MOV     R3,?V0 + 3
        LCALL   ??osal_mem_free?relay
        LJMP    ??SwqAPP_ProcessEvent_4 & 0xFFFF
??SwqAPP_ProcessEvent_8:
        MOV     A,?V0 + 0
        ADD     A,#0x13
        MOV     DPL,A
        MOV     A,?V0 + 1
        ADDC    A,#0x0
        MOV     DPH,A
        MOVX    A,@DPTR
        MOV     R0,A
        INC     DPTR
        MOVX    A,@DPTR
        MOV     DPH,A
        MOV     DPL,R0
        MOVX    A,@DPTR
        JNZ     ??SwqAPP_ProcessEvent_10
        ; Setup parameters for call to function HalLedSet
        MOV     R2,#0x1
??SwqAPP_ProcessEvent_11:
        MOV     R1,#0x8
        LCALL   ??HalLedSet?relay
        LJMP    ??SwqAPP_ProcessEvent_4 & 0xFFFF
??SwqAPP_ProcessEvent_10:
        ; Setup parameters for call to function HalLedSet
        MOV     R2,#0x4
        SJMP    ??SwqAPP_ProcessEvent_11
??SwqAPP_ProcessEvent_6:
        INC     DPTR
        INC     DPTR
        INC     DPTR
        MOVX    A,@DPTR
        MOV     ?V0 + 4,A
        MOV     DPL,?V0 + 0
        MOV     DPH,?V0 + 1
        INC     DPTR
        INC     DPTR
        MOVX    A,@DPTR
        JZ      $+5
        LJMP    ??SwqAPP_ProcessEvent_4 & 0xFFFF
        MOV     A,?V0 + 4
        MOV     C,0xE0 /* A   */.1
        JNC     ??SwqAPP_ProcessEvent_12
        ; Setup parameters for call to function HalLedSet
        MOV     R2,#0x0
        MOV     R1,#0x8
        LCALL   ??HalLedSet?relay
        MOV     A,#0x8
        LCALL   ?XSTACK_DISP0_8
        MOV     A,#0x2
        MOVX    @DPTR,A
        MOV     DPL,?XSP + 0
        MOV     DPH,?XSP + 1
        CLR     A
        MOVX    @DPTR,A
        INC     DPTR
        MOVX    @DPTR,A
        ; Setup parameters for call to function NLME_GetShortAddr
        LCALL   ??NLME_GetShortAddr?relay
        MOV     ?V0 + 2,R2
        MOV     ?V0 + 3,R3
        MOV     R4,?V0 + 2
        MOV     R5,?V0 + 3
        MOV     ?V0 + 2,#SwqAPP_ClusterList & 0xff
        MOV     ?V0 + 3,#(SwqAPP_ClusterList >> 8) & 0xff
        ; Setup parameters for call to function ZDP_EndDeviceBindReq
        MOV     ?V0 + 5,#0x0
        MOV     R0,#?V0 + 5
        LCALL   ?PUSH_XSTACK_I_ONE
        CFI CFA_XSP16 add(XSP16, 36)
        MOV     R0,#?V0 + 2
        LCALL   ?PUSH_XSTACK_I_TWO
        CFI CFA_XSP16 add(XSP16, 38)
        MOV     ?V0 + 5,#0x1
        MOV     R0,#?V0 + 5
        LCALL   ?PUSH_XSTACK_I_ONE
        CFI CFA_XSP16 add(XSP16, 39)
        MOV     R0,#?V0 + 2
        LCALL   ?PUSH_XSTACK_I_TWO
        CFI CFA_XSP16 add(XSP16, 41)
        MOV     ?V0 + 2,#0x1
        MOV     R0,#?V0 + 2
        LCALL   ?PUSH_XSTACK_I_ONE
        CFI CFA_XSP16 add(XSP16, 42)
        MOV     ?V0 + 2,#0x4
        MOV     ?V0 + 3,#0xf
        MOV     R0,#?V0 + 2
        LCALL   ?PUSH_XSTACK_I_TWO
        CFI CFA_XSP16 add(XSP16, 44)
        MOV     DPTR,#SwqAPP_epDesc
        MOVX    A,@DPTR
        MOV     R1,A
        MOV     A,#0x9
        LCALL   ?XSTACK_DISP0_8
        MOV     R2,DPL
        MOV     R3,DPH
        LCALL   ??ZDP_EndDeviceBindReq?relay
        MOV     A,#0x9
        LCALL   ?DEALLOC_XSTACK8
        CFI CFA_XSP16 add(XSP16, 35)
??SwqAPP_ProcessEvent_12:
        MOV     A,?V0 + 4
        MOV     C,0xE0 /* A   */.3
        JC      $+5
        LJMP    ??SwqAPP_ProcessEvent_4 & 0xFFFF
        ; Setup parameters for call to function HalLedSet
        MOV     R2,#0x0
        MOV     R1,#0x8
        LCALL   ??HalLedSet?relay
        MOV     A,#0x8
        LCALL   ?XSTACK_DISP0_8
        MOV     A,#0xf
        MOVX    @DPTR,A
        MOV     DPL,?XSP + 0
        MOV     DPH,?XSP + 1
        MOV     A,#-0x1
        MOVX    @DPTR,A
        INC     DPTR
        MOVX    @DPTR,A
        MOV     ?V0 + 2,#SwqAPP_ClusterList & 0xff
        MOV     ?V0 + 3,#(SwqAPP_ClusterList >> 8) & 0xff
        ; Setup parameters for call to function ZDP_MatchDescReq
        MOV     ?V0 + 4,#0x0
        MOV     R0,#?V0 + 4
        LCALL   ?PUSH_XSTACK_I_ONE
        CFI CFA_XSP16 add(XSP16, 36)
        MOV     R0,#?V0 + 2
        LCALL   ?PUSH_XSTACK_I_TWO
        CFI CFA_XSP16 add(XSP16, 38)
        MOV     ?V0 + 4,#0x1
        MOV     R0,#?V0 + 4
        LCALL   ?PUSH_XSTACK_I_ONE
        CFI CFA_XSP16 add(XSP16, 39)
        MOV     R0,#?V0 + 2
        LCALL   ?PUSH_XSTACK_I_TWO
        CFI CFA_XSP16 add(XSP16, 41)
        MOV     ?V0 + 2,#0x4
        MOV     ?V0 + 3,#0xf
        MOV     R0,#?V0 + 2
        LCALL   ?PUSH_XSTACK_I_TWO
        CFI CFA_XSP16 add(XSP16, 43)
        MOV     R1,#0x1
        MOV     R4,#-0x1
        MOV     R5,#-0x1
        MOV     A,#0x8
        LCALL   ?XSTACK_DISP0_8
        MOV     R2,DPL
        MOV     R3,DPH
        LCALL   ??ZDP_MatchDescReq?relay
        MOV     A,#0x8
        LCALL   ?DEALLOC_XSTACK8
        CFI CFA_XSP16 add(XSP16, 35)
        LJMP    ??SwqAPP_ProcessEvent_4 & 0xFFFF
//  315     }
//  316 
//  317     // return unprocessed events
//  318     return (events ^ SYS_EVENT_MSG);
??SwqAPP_ProcessEvent_5:
        MOV     A,R6
        MOV     R2,A
        MOV     A,R7
        XRL     A,#0x80
??SwqAPP_ProcessEvent_13:
        MOV     R3,A
        LJMP    ??SwqAPP_ProcessEvent_14 & 0xFFFF
//  319   }
//  320 
//  321   // Send a message out - This event is generated by a timer
//  322   //  (setup in SwqAPP_Init()).
//  323   if ( events & GENERICAPP_SEND_MSG_EVT )
??SwqAPP_ProcessEvent_0:
        MOV     A,R6
        MOV     C,0xE0 /* A   */.0
        JC      $+5
        LJMP    ??SwqAPP_ProcessEvent_15 & 0xFFFF
//  324   {
//  325     // Send "the" message
//  326     SwqAPP_SendTheMessage();
        MOV     A,#0x9
        LCALL   ?XSTACK_DISP0_8
        MOV     R4,DPL
        MOV     R5,DPH
        MOV     DPH,#(`?<Constant "Hello World">` >> 8) & 0xff
        MOV     DPL,#`?<Constant "Hello World">` & 0xff
        MOV     A,#0xc
        LCALL   ?MOVE_LONG8_XDATA_XDATA
        ; Setup parameters for call to function AF_DataRequest
        MOV     ?V0 + 0,#0x1e
        MOV     R0,#?V0 + 0
        LCALL   ?PUSH_XSTACK_I_ONE
        CFI CFA_XSP16 add(XSP16, 36)
        MOV     ?V0 + 0,#SwqAPP_TransID & 0xff
        MOV     ?V0 + 1,#(SwqAPP_TransID >> 8) & 0xff
        MOV     R0,#?V0 + 0
        LCALL   ?PUSH_XSTACK_I_TWO
        CFI CFA_XSP16 add(XSP16, 38)
        MOV     A,#0xc
        LCALL   ?XSTACK_DISP0_8
        MOV     ?V0 + 0,DPL
        MOV     ?V0 + 1,DPH
        MOV     R0,#?V0 + 0
        LCALL   ?PUSH_XSTACK_I_TWO
        CFI CFA_XSP16 add(XSP16, 40)
        ; Setup parameters for call to function osal_strlen
        MOV     A,#0xe
        LCALL   ?XSTACK_DISP0_8
        MOV     R2,DPL
        MOV     R3,DPH
        LCALL   ??osal_strlen?relay
        MOV     A,R2
        ADD     A,#0x1
        MOV     ?V0 + 0,A
        CLR     A
        ADDC    A,#0x0
        MOV     ?V0 + 1,A
        MOV     R0,#?V0 + 0
        LCALL   ?PUSH_XSTACK_I_TWO
        CFI CFA_XSP16 add(XSP16, 42)
        MOV     ?V0 + 0,#0x1
        MOV     ?V0 + 1,#0x0
        MOV     R0,#?V0 + 0
        LCALL   ?PUSH_XSTACK_I_TWO
        CFI CFA_XSP16 add(XSP16, 44)
        MOV     R1,#0x20
        MOV     R4,#SwqAPP_epDesc & 0xff
        MOV     R5,#(SwqAPP_epDesc >> 8) & 0xff
        MOV     R2,#SwqAPP_DstAddr & 0xff
        MOV     R3,#(SwqAPP_DstAddr >> 8) & 0xff
        LCALL   ??AF_DataRequest?relay
        MOV     A,#0x9
        LCALL   ?DEALLOC_XSTACK8
        CFI CFA_XSP16 add(XSP16, 35)
//  327 
//  328     // Setup to send message again
//  329     osal_start_timerEx( SwqAPP_TaskID,
//  330                         GENERICAPP_SEND_MSG_EVT,
//  331                         GENERICAPP_SEND_MSG_TIMEOUT );
        ; Setup parameters for call to function osal_start_timerEx
        MOV     R4,#-0x78
        MOV     R5,#0x13
        MOV     R2,#0x1
        MOV     R3,#0x0
        MOV     DPTR,#SwqAPP_TaskID
        MOVX    A,@DPTR
        MOV     R1,A
        LCALL   ??osal_start_timerEx?relay
//  332 
//  333     // return unprocessed events
//  334     return (events ^ GENERICAPP_SEND_MSG_EVT);
        MOV     A,R6
        XRL     A,#0x1
        MOV     R2,A
        MOV     A,R7
        LJMP    ??SwqAPP_ProcessEvent_13 & 0xFFFF
//  335   }
//  336 
//  337   
//  338 #if defined( IAR_ARMCM3_LM )
//  339   // Receive a message from the RTOS queue
//  340   if ( events & GENERICAPP_RTOS_MSG_EVT )
//  341   {
//  342     // Process message from RTOS queue
//  343     SwqAPP_ProcessRtosMessage();
//  344 
//  345     // return unprocessed events
//  346     return (events ^ GENERICAPP_RTOS_MSG_EVT);
//  347   }
//  348 #endif
//  349 
//  350   // Discard unknown events
//  351   return 0;
??SwqAPP_ProcessEvent_15:
        MOV     R2,#0x0
        MOV     R3,#0x0
??SwqAPP_ProcessEvent_14:
        MOV     A,#0x15
        LCALL   ?DEALLOC_XSTACK8
        CFI CFA_XSP16 add(XSP16, 14)
        MOV     R7,#0x6
        LJMP    ?BANKED_LEAVE_XDATA
        CFI EndBlock cfiBlock1
//  352 }

        RSEG BANK_RELAYS:CODE:REORDER:NOROOT(0)
??SwqAPP_Init?relay:
        LCALL   ?BDISPATCH
        DATA
        DC24    SwqAPP_Init

        RSEG BANK_RELAYS:CODE:REORDER:NOROOT(0)
??SwqAPP_ProcessEvent?relay:
        LCALL   ?BDISPATCH
        DATA
        DC24    SwqAPP_ProcessEvent

        RSEG XDATA_ROM_C:CONST:REORDER:NOROOT(0)
        DATA16
`?<Constant "a">`:
        DB "a"

        RSEG XDATA_ROM_C:CONST:REORDER:NOROOT(0)
        DATA8
`?<Constant "Hello World">`:
        DB "Hello World"

        END
//  353 
//  354 /*********************************************************************
//  355  * Event Generation Functions
//  356  */
//  357 
//  358 /*********************************************************************
//  359  * @fn      SwqAPP_ProcessZDOMsgs()
//  360  *
//  361  * @brief   Process response messages
//  362  *
//  363  * @param   none
//  364  *
//  365  * @return  none
//  366  */
//  367 static void SwqAPP_ProcessZDOMsgs( zdoIncomingMsg_t *inMsg )
//  368 {
//  369   switch ( inMsg->clusterID )
//  370   {
//  371     case End_Device_Bind_rsp:
//  372       if ( ZDO_ParseBindRsp( inMsg ) == ZSuccess )
//  373       {
//  374         // Light LED
//  375         HalLedSet( HAL_LED_4, HAL_LED_MODE_ON );
//  376       }
//  377 #if defined( BLINK_LEDS )
//  378       else
//  379       {
//  380         // Flash LED to show failure
//  381         HalLedSet ( HAL_LED_4, HAL_LED_MODE_FLASH );
//  382       }
//  383 #endif
//  384       break;
//  385 
//  386     case Match_Desc_rsp:
//  387       {
//  388         ZDO_ActiveEndpointRsp_t *pRsp = ZDO_ParseEPListRsp( inMsg );
//  389         if ( pRsp )
//  390         {
//  391           if ( pRsp->status == ZSuccess && pRsp->cnt )
//  392           {
//  393             SwqAPP_DstAddr.addrMode = (afAddrMode_t)Addr16Bit;
//  394             SwqAPP_DstAddr.addr.shortAddr = pRsp->nwkAddr;
//  395             // Take the first endpoint, Can be changed to search through endpoints
//  396             SwqAPP_DstAddr.endPoint = pRsp->epList[0];
//  397 
//  398             // Light LED
//  399             HalLedSet( HAL_LED_4, HAL_LED_MODE_ON );
//  400           }
//  401           osal_mem_free( pRsp );
//  402         }
//  403       }
//  404       break;
//  405   }
//  406 }
//  407 
//  408 /*********************************************************************
//  409  * @fn      SwqAPP_HandleKeys
//  410  *
//  411  * @brief   Handles all key events for this device.
//  412  *
//  413  * @param   shift - true if in shift/alt.
//  414  * @param   keys - bit field for key events. Valid entries:
//  415  *                 HAL_KEY_SW_4
//  416  *                 HAL_KEY_SW_3
//  417  *                 HAL_KEY_SW_2
//  418  *                 HAL_KEY_SW_1
//  419  *
//  420  * @return  none
//  421  */
//  422 static void SwqAPP_HandleKeys( uint8 shift, uint8 keys )
//  423 {
//  424   zAddrType_t dstAddr;
//  425 
//  426   // Shift is used to make each button/switch dual purpose.
//  427   
//  428   if ( shift )
//  429   {
//  430     if ( keys & HAL_KEY_SW_1 )
//  431     {
//  432     }
//  433     if ( keys & HAL_KEY_SW_2 )
//  434     {
//  435     }
//  436     if ( keys & HAL_KEY_SW_3 )
//  437     {
//  438     }
//  439     if ( keys & HAL_KEY_SW_4 )
//  440     {
//  441     }
//  442   
//  443   }
//  444   else
//  445   {
//  446     if ( keys & HAL_KEY_SW_1 )
//  447     {
//  448       // Since SW1 isn't used for anything else in this application...
//  449 #if defined( SWITCH1_BIND )
//  450       // we can use SW1 to simulate SW2 for devices that only have one switch,
//  451       keys |= HAL_KEY_SW_2;
//  452 #elif defined( SWITCH1_MATCH )
//  453       // or use SW1 to simulate SW4 for devices that only have one switch
//  454       keys |= HAL_KEY_SW_4;
//  455 #endif
//  456     }
//  457 
//  458     if ( keys & HAL_KEY_SW_2 )
//  459     {
//  460       HalLedSet ( HAL_LED_4, HAL_LED_MODE_OFF );
//  461 
//  462       // Initiate an End Device Bind Request for the mandatory endpoint
//  463       dstAddr.addrMode = Addr16Bit;
//  464       dstAddr.addr.shortAddr = 0x0000; // Coordinator
//  465       ZDP_EndDeviceBindReq( &dstAddr, NLME_GetShortAddr(),
//  466                             SwqAPP_epDesc.endPoint,
//  467                             GENERICAPP_PROFID,
//  468                             GENERICAPP_MAX_CLUSTERS, (cId_t *)SwqAPP_ClusterList,
//  469                             GENERICAPP_MAX_CLUSTERS, (cId_t *)SwqAPP_ClusterList,
//  470                             FALSE );
//  471     }
//  472 
//  473     if ( keys & HAL_KEY_SW_3 )
//  474     {
//  475     }
//  476    
//  477     if ( keys & HAL_KEY_SW_4 )
//  478     {
//  479       HalLedSet ( HAL_LED_4, HAL_LED_MODE_OFF );
//  480       // Initiate a Match Description Request (Service Discovery)
//  481       dstAddr.addrMode = AddrBroadcast;
//  482       dstAddr.addr.shortAddr = NWK_BROADCAST_SHORTADDR;
//  483       ZDP_MatchDescReq( &dstAddr, NWK_BROADCAST_SHORTADDR,
//  484                         GENERICAPP_PROFID,
//  485                         GENERICAPP_MAX_CLUSTERS, (cId_t *)SwqAPP_ClusterList,
//  486                         GENERICAPP_MAX_CLUSTERS, (cId_t *)SwqAPP_ClusterList,
//  487                         FALSE );
//  488     }
//  489   }
//  490 }
//  491 
//  492 /*********************************************************************
//  493  * LOCAL FUNCTIONS
//  494  */
//  495 
//  496 /*********************************************************************
//  497  * @fn      SwqAPP_MessageMSGCB
//  498  *
//  499  * @brief   Data message processor callback.  This function processes
//  500  *          any incoming data - probably from other devices.  So, based
//  501  *          on cluster ID, perform the intended action.
//  502  *
//  503  * @param   none
//  504  *
//  505  * @return  none
//  506  */
//  507 static void SwqAPP_MessageMSGCB( afIncomingMSGPacket_t *pkt )
//  508 {
//  509   switch ( pkt->clusterId )
//  510   {
//  511     case GENERICAPP_CLUSTERID:
//  512       // "the" message
//  513 #if defined( LCD_SUPPORTED )
//  514       HalLcdWriteScreen( (char*)pkt->cmd.Data, "rcvd" );
//  515 #elif defined( WIN32 )
//  516       WPRINTSTR( pkt->cmd.Data );
//  517 #endif
//  518       break;
//  519   }
//  520 }
//  521 
//  522 /*********************************************************************
//  523  * @fn      SwqAPP_SendTheMessage
//  524  *
//  525  * @brief   Send "the" message.
//  526  *
//  527  * @param   none
//  528  *
//  529  * @return  none
//  530  */
//  531 static void SwqAPP_SendTheMessage( void )
//  532 {
//  533   char theMessageData[] = "Hello World";
//  534 
//  535   if ( AF_DataRequest( &SwqAPP_DstAddr, &SwqAPP_epDesc,
//  536                        GENERICAPP_CLUSTERID,
//  537                        (byte)osal_strlen( theMessageData ) + 1,
//  538                        (byte *)&theMessageData,
//  539                        &SwqAPP_TransID,
//  540                        AF_DISCV_ROUTE, AF_DEFAULT_RADIUS ) == afStatus_SUCCESS )
//  541   {
//  542     // Successfully requested to be sent.
//  543   }
//  544   else
//  545   {
//  546     // Error occurred in request to send.
//  547   }
//  548 }
//  549 
//  550 #if defined( IAR_ARMCM3_LM )
//  551 /*********************************************************************
//  552  * @fn      SwqAPP_ProcessRtosMessage
//  553  *
//  554  * @brief   Receive message from RTOS queue, send response back.
//  555  *
//  556  * @param   none
//  557  *
//  558  * @return  none
//  559  */
//  560 static void SwqAPP_ProcessRtosMessage( void )
//  561 {
//  562   osalQueue_t inMsg;
//  563 
//  564   if ( osal_queue_receive( OsalQueue, &inMsg, 0 ) == pdPASS )
//  565   {
//  566     uint8 cmndId = inMsg.cmnd;
//  567     uint32 counter = osal_build_uint32( inMsg.cbuf, 4 );
//  568 
//  569     switch ( cmndId )
//  570     {
//  571       case CMD_INCR:
//  572         counter += 1;  /* Increment the incoming counter */
//  573                        /* Intentionally fall through next case */
//  574 
//  575       case CMD_ECHO:
//  576       {
//  577         userQueue_t outMsg;
//  578 
//  579         outMsg.resp = RSP_CODE | cmndId;  /* Response ID */
//  580         osal_buffer_uint32( outMsg.rbuf, counter );    /* Increment counter */
//  581         osal_queue_send( UserQueue1, &outMsg, 0 );  /* Send back to UserTask */
//  582         break;
//  583       }
//  584       
//  585       default:
//  586         break;  /* Ignore unknown command */    
//  587     }
//  588   }
//  589 }
//  590 #endif
//  591 
//  592 /*********************************************************************
//  593  */
// 
// 797 bytes in segment BANKED_CODE
//  12 bytes in segment BANK_RELAYS
//  28 bytes in segment XDATA_ROM_C
//  21 bytes in segment XDATA_Z
// 
// 809 bytes of CODE  memory
//  28 bytes of CONST memory
//  21 bytes of XDATA memory
//
//Errors: none
//Warnings: none
